; Function Attrs: mustprogress nounwind uwtable
define hidden void @_ZN18InterpreterRuntime25SignatureHandlerGenerator8generateEm(ptr noundef nonnull align 8 dereferenceable(84) %0, i64 noundef %1) local_unnamed_addr #0 align 2 {
  %3 = alloca %class.methodHandle, align 8
  %4 = alloca %class.AddressLiteral, align 8
  %5 = alloca %class.ExternalAddress, align 8
  %6 = alloca %class.methodHandle, align 8
  %7 = getelementptr inbounds i8, ptr %0, i64 8
  tail call void @_ZN17SignatureIterator15set_fingerprintEm(ptr noundef nonnull align 8 dereferenceable(24) %7, i64 noundef %1) #10
  call void @llvm.lifetime.start.p0(i64 16, ptr nonnull %3)
  %8 = getelementptr inbounds i8, ptr %0, i64 32
  call void @_ZN12methodHandleC1ERKS_(ptr noundef nonnull align 8 dereferenceable(16) %3, ptr noundef nonnull align 8 dereferenceable(16) %8) #10
  %9 = load ptr, ptr %3, align 8
  %10 = getelementptr inbounds i8, ptr %9, i64 40
  %.sroa.0.0.copyload.i.i.i.i = load i32, ptr %10, align 8
  %11 = and i32 %.sroa.0.0.copyload.i.i.i.i, 8
  %.not.i = icmp eq i32 %11, 0
  call void @_ZN12methodHandleD1Ev(ptr noundef nonnull align 8 dereferenceable(16) %3) #10
  call void @llvm.lifetime.end.p0(i64 16, ptr nonnull %3)
  br i1 %.not.i, label %12, label %_ZN23NativeSignatureIterator7iterateEm.exit

12:                                               ; preds = %2
  %13 = load ptr, ptr %0, align 8
  %14 = getelementptr inbounds i8, ptr %13, i64 16
  %15 = load ptr, ptr %14, align 8
  call void %15(ptr noundef nonnull align 8 dereferenceable(60) %0) #10
  %16 = getelementptr inbounds i8, ptr %0, i64 56
  %17 = load i32, ptr %16, align 8
  %18 = add nsw i32 %17, 1
  store i32 %18, ptr %16, align 8
  %19 = getelementptr inbounds i8, ptr %0, i64 48
  %20 = load i32, ptr %19, align 8
  %21 = add nsw i32 %20, 1
  store i32 %21, ptr %19, align 8
  br label %_ZN23NativeSignatureIterator7iterateEm.exit

_ZN23NativeSignatureIterator7iterateEm.exit:      ; preds = %2, %12
  call void @_ZN17SignatureIterator16do_parameters_onI23NativeSignatureIteratorEEvPT_(ptr noundef nonnull align 8 dereferenceable(24) %7, ptr noundef nonnull %0)
  %22 = getelementptr inbounds i8, ptr %0, i64 64
  %23 = load ptr, ptr %22, align 8
  call void @_ZN12methodHandleC1ERKS_(ptr noundef nonnull align 8 dereferenceable(16) %6, ptr noundef nonnull align 8 dereferenceable(16) %8) #10
  %24 = load ptr, ptr %6, align 8
  %25 = getelementptr inbounds i8, ptr %24, i64 8
  %26 = load ptr, ptr %25, align 8
  %27 = getelementptr inbounds i8, ptr %26, i64 32
  %28 = load i8, ptr %27, align 8
  %29 = call noundef i32 @_ZN19AbstractInterpreter18BasicType_as_indexE9BasicType(i8 noundef zeroext %28) #10
  %30 = sext i32 %29 to i64
  %31 = getelementptr inbounds [10 x ptr], ptr @_ZN19AbstractInterpreter20_native_abi_to_toscaE, i64 0, i64 %30
  %32 = load ptr, ptr %31, align 8
  %.not.i.i = icmp eq ptr %32, null
  %33 = select i1 %.not.i.i, i32 0, i32 7
  call void @_ZN14AddressLiteralC2EPhN9relocInfo9relocTypeE(ptr noundef nonnull align 8 dereferenceable(56) %5, ptr noundef %32, i32 noundef %33) #10
  %34 = load ptr, ptr %5, align 8
  %35 = getelementptr inbounds i8, ptr %34, i64 16
  %36 = load ptr, ptr %35, align 8
  call void %36(ptr noundef nonnull align 8 dereferenceable(20) %5, ptr noundef nonnull align 8 dereferenceable(40) %4) #10
  %37 = getelementptr inbounds i8, ptr %4, i64 40
  %38 = getelementptr inbounds i8, ptr %5, i64 40
  call void @llvm.memcpy.p0.p0.i64(ptr noundef nonnull align 8 dereferenceable(16) %37, ptr noundef nonnull align 8 dereferenceable(16) %38, i64 16, i1 false)
  call void @_ZN14MacroAssembler3leaE8Register14AddressLiteral(ptr noundef nonnull align 8 dereferenceable(40) %23, i32 0, ptr noundef nonnull %4) #10
  call void @_ZN12methodHandleD1Ev(ptr noundef nonnull align 8 dereferenceable(16) %6) #10
  %39 = load ptr, ptr %22, align 8
  call void @_ZN9Assembler3retEi(ptr noundef nonnull align 8 dereferenceable(40) %39, i32 noundef 0) #10
  %40 = load ptr, ptr %22, align 8
  call void @_ZN17AbstractAssembler5flushEv(ptr noundef nonnull align 8 dereferenceable(24) %40) #10
  ret void
}